	.file	"question_1.c"
	.text
	.globl	sh
	.data
	.align 8
	.type	sh, @object
	.size	sh, 8
sh:
	.string	"/bin/sh"
	.text
	.globl	init_func
	.type	init_func, @function
init_func:
.LFB6:
	.cfi_startproc
	endbr64
	pushq	%rbp
	.cfi_def_cfa_offset 16
	.cfi_offset 6, -16
	movq	%rsp, %rbp
	.cfi_def_cfa_register 6
	movq	stdin(%rip), %rax
	movl	$0, %ecx
	movl	$2, %edx
	movl	$0, %esi
	movq	%rax, %rdi
	call	setvbuf@PLT
	movq	stdout(%rip), %rax
	movl	$0, %ecx
	movl	$2, %edx
	movl	$0, %esi
	movq	%rax, %rdi
	call	setvbuf@PLT
	movq	stderr(%rip), %rax
	movl	$0, %ecx
	movl	$2, %edx
	movl	$0, %esi
	movq	%rax, %rdi
	call	setvbuf@PLT
	movl	$0, %eax
	popq	%rbp
	.cfi_def_cfa 7, 8
	ret
	.cfi_endproc
.LFE6:
	.size	init_func, .-init_func
	.globl	func
	.type	func, @function
func:
.LFB7:
	.cfi_startproc
	endbr64
	pushq	%rbp
	.cfi_def_cfa_offset 16
	.cfi_offset 6, -16
	movq	%rsp, %rbp
	.cfi_def_cfa_register 6
	subq	$16, %rsp
	movq	%rdi, -8(%rbp)
	movq	-8(%rbp), %rax
	movq	%rax, %rdi
	call	system@PLT
	movl	$0, %eax
	leave
	.cfi_def_cfa 7, 8
	ret
	.cfi_endproc
.LFE7:
	.size	func, .-func
	.section	.rodata
.LC0:
	.string	"input:"
	.text
	.globl	main
	.type	main, @function
main:
.LFB8:
	.cfi_startproc
	endbr64
	pushq	%rbp
	.cfi_def_cfa_offset 16
	.cfi_offset 6, -16
	movq	%rsp, %rbp
	.cfi_def_cfa_register 6
	subq	$32, %rsp
	movq	%fs:40, %rax
	movq	%rax, -8(%rbp)
	xorl	%eax, %eax
	movq	$0, -24(%rbp)
	movq	$0, -16(%rbp)
	leaq	.LC0(%rip), %rdi
	call	puts@PLT
	leaq	-24(%rbp), %rax
	movq	%rax, %rdi
	movl	$0, %eax
	call	gets@PLT
	leaq	-24(%rbp), %rax
	movq	%rax, %rdi
	movl	$0, %eax
	call	printf@PLT
	movzbl	-16(%rbp), %eax
	cmpb	$97, %al
	jne	.L6
	leaq	sh(%rip), %rdi
	call	func
.L6:
	movl	$0, %eax
	movq	-8(%rbp), %rdx
	xorq	%fs:40, %rdx
	je	.L8
	call	__stack_chk_fail@PLT
.L8:
	leave
	.cfi_def_cfa 7, 8
	ret
	.cfi_endproc
.LFE8:
	.size	main, .-main
	.ident	"GCC: (Ubuntu 9.3.0-17ubuntu1~20.04) 9.3.0"
	.section	.note.GNU-stack,"",@progbits
	.section	.note.gnu.property,"a"
	.align 8
	.long	 1f - 0f
	.long	 4f - 1f
	.long	 5
0:
	.string	 "GNU"
1:
	.align 8
	.long	 0xc0000002
	.long	 3f - 2f
2:
	.long	 0x3
3:
	.align 8
4:
